target datalayout = "e-m:e-p270:32:32-p271:32:32-p272:64:64-i64:64-i128:128-f80:128-n8:16:32:64-S128"
target triple = "x86_64-unknown-linux-gnu"

%"class.FLAC::Metadata::CueSheet::Track" = type { ptr, ptr }
%struct.FLAC__StreamMetadata_CueSheet_Track = type { i64, i8, [13 x i8], i8, i8, ptr }

; Function Attrs: mustprogress nounwind sspstrong uwtable
define void @_ZN4FLAC8Metadata8CueSheet5Track8set_isrcEPKc(ptr noundef nonnull align 8 dereferenceable(16) %this, ptr noundef %value) #5 align 2 {
entry:
  %this.addr = alloca ptr, align 8
  %value.addr = alloca ptr, align 8
  store ptr %this, ptr %this.addr, align 8
  store ptr %value, ptr %value.addr, align 8
  %this1 = load ptr, ptr %this.addr, align 8
  %object_ = getelementptr inbounds %"class.FLAC::Metadata::CueSheet::Track", ptr %this1, i32 0, i32 1
  %0 = load ptr, ptr %object_, align 8
  %isrc = getelementptr inbounds %struct.FLAC__StreamMetadata_CueSheet_Track, ptr %0, i32 0, i32 2
  %arraydecay = getelementptr inbounds [13 x i8], ptr %isrc, i64 0, i64 0
  %1 = load ptr, ptr %value.addr, align 8
  call void @llvm.memcpy.p0.p0.i64(ptr align 1 %arraydecay, ptr align 1 %1, i64 12, i1 false)
  %object_2 = getelementptr inbounds %"class.FLAC::Metadata::CueSheet::Track", ptr %this1, i32 0, i32 1
  %2 = load ptr, ptr %object_2, align 8
  %isrc3 = getelementptr inbounds %struct.FLAC__StreamMetadata_CueSheet_Track, ptr %2, i32 0, i32 2
  %arrayidx = getelementptr inbounds [13 x i8], ptr %isrc3, i64 0, i64 12
  store i8 0, ptr %arrayidx, align 1
  ret void
}