; Function Attrs: mustprogress nofree norecurse nosync nounwind sspstrong willreturn memory(readwrite, inaccessiblemem: none) uwtable
define void @_ZN4FLAC8Metadata8CueSheet5Track8set_isrcEPKc(ptr nocapture noundef nonnull readonly align 8 dereferenceable(16) %this, ptr nocapture noundef readonly %value) local_unnamed_addr #10 align 2 {
entry:
  %object_ = getelementptr inbounds i8, ptr %this, i64 8
  %0 = load ptr, ptr %object_, align 8
  %isrc = getelementptr inbounds i8, ptr %0, i64 9
  tail call void @llvm.memcpy.p0.p0.i64(ptr noundef nonnull align 1 dereferenceable(12) %isrc, ptr noundef nonnull align 1 dereferenceable(12) %value, i64 12, i1 false)
  %1 = load ptr, ptr %object_, align 8
  %arrayidx = getelementptr inbounds i8, ptr %1, i64 21
  store i8 0, ptr %arrayidx, align 1
  ret void
}